; Function Attrs: mustprogress uwtable
define void @_ZN2cv3dnn14dnn4_v2024122321readNetFromTensorflowERKNSt7__cxx1112basic_stringIcSt11char_traitsIcESaIcEEES9_(ptr dead_on_unwind noalias writable sret(%"class.cv::dnn::dnn4_v20241223::Net") align 8 %0, ptr noundef nonnull readonly align 8 captures(none) dereferenceable(32) %1, ptr noundef nonnull readonly align 8 captures(none) dereferenceable(32) %2) local_unnamed_addr #3 personality ptr @__gxx_personality_v0 {
  %4 = alloca %"class.cv::dnn::dnn4_v20241223::Net", align 8
  %5 = alloca ptr, align 8
  %6 = alloca ptr, align 8
  call void @llvm.lifetime.start.p0(i64 8, ptr nonnull %5) #29
  %7 = load ptr, ptr %1, align 8, !tbaa !3
  store ptr %7, ptr %5, align 8, !tbaa !11
  call void @llvm.lifetime.start.p0(i64 8, ptr nonnull %6) #29
  %8 = load ptr, ptr %2, align 8, !tbaa !3
  store ptr %8, ptr %6, align 8, !tbaa !11
  tail call void @llvm.experimental.noalias.scope.decl(metadata !12)
  call void @llvm.lifetime.start.p0(i64 16, ptr nonnull %4) #29, !noalias !12
  call fastcc void @_ZN2cv3dnn14dnn4_v202412236detail7readNetINS1_12_GLOBAL__N_110TFImporterEJPKcS7_EEENS1_3NetEDpOT0_(ptr dead_on_unwind noalias nonnull writable align 8 %4, ptr noundef nonnull readonly align 8 dereferenceable(8) %5, ptr noundef nonnull readonly align 8 dereferenceable(8) %6), !noalias !12
  %9 = load i8, ptr @_ZN2cv3dnn14dnn4_v2024122319DNN_DIAGNOSTICS_RUNE, align 1, !tbaa !15, !range !17, !noalias !12, !noundef !18
  %10 = trunc nuw i8 %9 to i1
  br i1 %10, label %11, label %21

11:                                               ; preds = %3
  %12 = load i8, ptr @_ZN2cv3dnn14dnn4_v2024122320DNN_SKIP_REAL_IMPORTE, align 1, !tbaa !15, !range !17, !noalias !12, !noundef !18
  %13 = trunc nuw i8 %12 to i1
  br i1 %13, label %21, label %14

14:                                               ; preds = %11
  invoke void @_ZN2cv3dnn14dnn4_v2024122322enableModelDiagnosticsEb(i1 noundef zeroext false)
          to label %15 unwind label %17, !noalias !12

15:                                               ; preds = %14
  invoke fastcc void @_ZN2cv3dnn14dnn4_v202412236detail7readNetINS1_12_GLOBAL__N_110TFImporterEJPKcS7_EEENS1_3NetEDpOT0_(ptr dead_on_unwind noalias writable align 8 %0, ptr noundef nonnull readonly align 8 dereferenceable(8) %5, ptr noundef nonnull readonly align 8 dereferenceable(8) %6)
          to label %16 unwind label %17

16:                                               ; preds = %15
  invoke void @_ZN2cv3dnn14dnn4_v2024122322enableModelDiagnosticsEb(i1 noundef zeroext true)
          to label %_ZN2cv3dnn14dnn4_v202412236detail17readNetDiagnosticINS1_12_GLOBAL__N_110TFImporterEJPKcS7_EEENS1_3NetEDpOT0_.exit unwind label %19

17:                                               ; preds = %15, %14
  %18 = landingpad { ptr, i32 }
          cleanup
  br label %34

19:                                               ; preds = %16
  %20 = landingpad { ptr, i32 }
          cleanup
  call void @_ZN2cv3dnn14dnn4_v202412233NetD1Ev(ptr noundef nonnull align 8 dereferenceable(16) %0) #29
  br label %34

21:                                               ; preds = %11, %3
  %22 = load ptr, ptr %4, align 8, !tbaa !19, !noalias !12
  store ptr %22, ptr %0, align 8, !tbaa !19, !alias.scope !12
  %23 = getelementptr inbounds nuw i8, ptr %0, i64 8
  %24 = getelementptr inbounds nuw i8, ptr %4, i64 8
  %25 = load ptr, ptr %24, align 8, !tbaa !24, !noalias !12
  store ptr %25, ptr %23, align 8, !tbaa !24, !alias.scope !12
  %.not.i.i.i.i.i.i = icmp eq ptr %25, null
  br i1 %.not.i.i.i.i.i.i, label %_ZN2cv3dnn14dnn4_v202412236detail17readNetDiagnosticINS1_12_GLOBAL__N_110TFImporterEJPKcS7_EEENS1_3NetEDpOT0_.exit, label %26

26:                                               ; preds = %21
  %27 = getelementptr inbounds nuw i8, ptr %25, i64 8
  %28 = load i8, ptr @__libc_single_threaded, align 1, !tbaa !25, !noalias !12
  %.not.i.i.i.i.i.i.i = icmp eq i8 %28, 0
  br i1 %.not.i.i.i.i.i.i.i, label %32, label %29

29:                                               ; preds = %26
  %30 = load i32, ptr %27, align 4, !tbaa !26, !noalias !12
  %31 = add nsw i32 %30, 1
  store i32 %31, ptr %27, align 4, !tbaa !26, !noalias !12
  br label %_ZN2cv3dnn14dnn4_v202412236detail17readNetDiagnosticINS1_12_GLOBAL__N_110TFImporterEJPKcS7_EEENS1_3NetEDpOT0_.exit

32:                                               ; preds = %26
  %33 = atomicrmw volatile add ptr %27, i32 1 acq_rel, align 4, !noalias !12
  br label %_ZN2cv3dnn14dnn4_v202412236detail17readNetDiagnosticINS1_12_GLOBAL__N_110TFImporterEJPKcS7_EEENS1_3NetEDpOT0_.exit

34:                                               ; preds = %19, %17
  %.pn.i = phi { ptr, i32 } [ %20, %19 ], [ %18, %17 ]
  call void @_ZN2cv3dnn14dnn4_v202412233NetD1Ev(ptr noundef nonnull align 8 dereferenceable(16) %4) #29
  call void @llvm.lifetime.end.p0(i64 16, ptr nonnull %4) #29, !noalias !12
  resume { ptr, i32 } %.pn.i

_ZN2cv3dnn14dnn4_v202412236detail17readNetDiagnosticINS1_12_GLOBAL__N_110TFImporterEJPKcS7_EEENS1_3NetEDpOT0_.exit: ; preds = %16, %21, %29, %32
  call void @_ZN2cv3dnn14dnn4_v202412233NetD1Ev(ptr noundef nonnull align 8 dereferenceable(16) %4) #29
  call void @llvm.lifetime.end.p0(i64 16, ptr nonnull %4) #29, !noalias !12
  call void @llvm.lifetime.end.p0(i64 8, ptr nonnull %6) #29
  call void @llvm.lifetime.end.p0(i64 8, ptr nonnull %5) #29
  ret void
}